target datalayout = "e-m:e-p270:32:32-p271:32:32-p272:64:64-i64:64-i128:128-f80:128-n8:16:32:64-S128"
target triple = "x86_64-pc-linux-gnu"

%struct.btCollisionShapeData = type { ptr, i32, [4 x i8] }
%class.btCollisionShape = type { ptr, i32, ptr, i32, i32 }

@.str = private unnamed_addr constant [21 x i8] c"btCollisionShapeData\00", align 1

; Function Attrs: mustprogress uwtable
define dso_local noundef ptr @_ZNK16btCollisionShape9serializeEPvP12btSerializer(ptr noundef nonnull align 8 dereferenceable(32) %0, ptr noundef %1, ptr noundef %2) unnamed_addr #4 align 2 {
  %4 = alloca ptr, align 8
  %5 = alloca ptr, align 8
  %6 = alloca ptr, align 8
  %7 = alloca ptr, align 8
  %8 = alloca ptr, align 8
  store ptr %0, ptr %4, align 8, !tbaa !12
  store ptr %1, ptr %5, align 8, !tbaa !25
  store ptr %2, ptr %6, align 8, !tbaa !26
  %9 = load ptr, ptr %4, align 8
  call void @llvm.lifetime.start.p0(i64 8, ptr %7) #12
  %10 = load ptr, ptr %5, align 8, !tbaa !25
  store ptr %10, ptr %7, align 8, !tbaa !28
  call void @llvm.lifetime.start.p0(i64 8, ptr %8) #12
  %11 = load ptr, ptr %6, align 8, !tbaa !26
  %12 = load ptr, ptr %11, align 8, !tbaa !18
  %13 = getelementptr inbounds ptr, ptr %12, i64 10
  %14 = load ptr, ptr %13, align 8
  %15 = call noundef ptr %14(ptr noundef nonnull align 8 dereferenceable(8) %11, ptr noundef %9)
  store ptr %15, ptr %8, align 8, !tbaa !30
  %16 = load ptr, ptr %6, align 8, !tbaa !26
  %17 = load ptr, ptr %8, align 8, !tbaa !30
  %18 = load ptr, ptr %16, align 8, !tbaa !18
  %19 = getelementptr inbounds ptr, ptr %18, i64 7
  %20 = load ptr, ptr %19, align 8
  %21 = call noundef ptr %20(ptr noundef nonnull align 8 dereferenceable(8) %16, ptr noundef %17)
  %22 = load ptr, ptr %7, align 8, !tbaa !28
  %23 = getelementptr inbounds nuw %struct.btCollisionShapeData, ptr %22, i32 0, i32 0
  store ptr %21, ptr %23, align 8, !tbaa !32
  %24 = load ptr, ptr %7, align 8, !tbaa !28
  %25 = getelementptr inbounds nuw %struct.btCollisionShapeData, ptr %24, i32 0, i32 0
  %26 = load ptr, ptr %25, align 8, !tbaa !32
  %27 = icmp ne ptr %26, null
  br i1 %27, label %28, label %34

28:                                               ; preds = %3
  %29 = load ptr, ptr %6, align 8, !tbaa !26
  %30 = load ptr, ptr %8, align 8, !tbaa !30
  %31 = load ptr, ptr %29, align 8, !tbaa !18
  %32 = getelementptr inbounds ptr, ptr %31, i64 12
  %33 = load ptr, ptr %32, align 8
  call void %33(ptr noundef nonnull align 8 dereferenceable(8) %29, ptr noundef %30)
  br label %34

34:                                               ; preds = %28, %3
  %35 = getelementptr inbounds nuw %class.btCollisionShape, ptr %9, i32 0, i32 1
  %36 = load i32, ptr %35, align 8, !tbaa !34
  %37 = load ptr, ptr %7, align 8, !tbaa !28
  %38 = getelementptr inbounds nuw %struct.btCollisionShapeData, ptr %37, i32 0, i32 1
  store i32 %36, ptr %38, align 8, !tbaa !36
  %39 = load ptr, ptr %7, align 8, !tbaa !28
  %40 = getelementptr inbounds nuw %struct.btCollisionShapeData, ptr %39, i32 0, i32 2
  %41 = getelementptr inbounds [4 x i8], ptr %40, i64 0, i64 0
  call void @llvm.memset.p0.i64(ptr align 4 %41, i8 0, i64 4, i1 false)
  call void @llvm.lifetime.end.p0(i64 8, ptr %8) #12
  call void @llvm.lifetime.end.p0(i64 8, ptr %7) #12
  ret ptr @.str
}