; Function Attrs: mustprogress uwtable
define dso_local noundef ptr @_ZNK16btCollisionShape9serializeEPvP12btSerializer(ptr noundef nonnull align 8 dereferenceable(32) %0, ptr noundef writeonly captures(none) initializes((0, 16)) %1, ptr noundef %2) unnamed_addr #3 align 2 {
  %4 = load ptr, ptr %2, align 8, !tbaa !8
  %5 = getelementptr inbounds nuw i8, ptr %4, i64 80
  %6 = load ptr, ptr %5, align 8
  %7 = tail call noundef ptr %6(ptr noundef nonnull align 8 dereferenceable(8) %2, ptr noundef nonnull %0)
  %8 = load ptr, ptr %2, align 8, !tbaa !8
  %9 = getelementptr inbounds nuw i8, ptr %8, i64 56
  %10 = load ptr, ptr %9, align 8
  %11 = tail call noundef ptr %10(ptr noundef nonnull align 8 dereferenceable(8) %2, ptr noundef %7)
  store ptr %11, ptr %1, align 8, !tbaa !11
  %.not = icmp eq ptr %11, null
  br i1 %.not, label %16, label %12

12:                                               ; preds = %3
  %13 = load ptr, ptr %2, align 8, !tbaa !8
  %14 = getelementptr inbounds nuw i8, ptr %13, i64 96
  %15 = load ptr, ptr %14, align 8
  tail call void %15(ptr noundef nonnull align 8 dereferenceable(8) %2, ptr noundef %7)
  br label %16

16:                                               ; preds = %12, %3
  %17 = getelementptr inbounds nuw i8, ptr %0, i64 8
  %18 = load i32, ptr %17, align 8, !tbaa !16
  %19 = getelementptr inbounds nuw i8, ptr %1, i64 8
  store i32 %18, ptr %19, align 8, !tbaa !18
  %20 = getelementptr inbounds nuw i8, ptr %1, i64 12
  store i32 0, ptr %20, align 4
  ret ptr @.str
}